target datalayout = "e-m:e-p270:32:32-p271:32:32-p272:64:64-i64:64-i128:128-f80:128-n8:16:32:64-S128"
target triple = "x86_64-pc-linux-gnu"

%struct._spdu_can_mapping = type { i32, i32, i32 }
%struct.can_info = type { i32, i32, i32, i16 }

@data_spdu_can_mappings = internal global ptr null, align 8
@.str.311 = private unnamed_addr constant [29 x i8] c"%s:%u: failed assertion \22%s\22\00", align 1
@.str.312 = private unnamed_addr constant [36 x i8] c"epan/dissectors/packet-signal-pdu.c\00", align 1
@.str.328 = private unnamed_addr constant [9 x i8] c"can_info\00", align 1

; Function Attrs: null_pointer_is_valid sspstrong uwtable
define internal ptr @get_can_mapping(i32 noundef %0, i16 noundef zeroext %1) #0 {
  %3 = alloca ptr, align 8
  %4 = alloca i32, align 4
  %5 = alloca i16, align 2
  %6 = alloca i64, align 8
  %7 = alloca ptr, align 8
  %8 = alloca i32, align 4
  store i32 %0, ptr %4, align 4
  store i16 %1, ptr %5, align 2
  call void @llvm.lifetime.start.p0(i64 8, ptr %6) #14
  call void @llvm.lifetime.start.p0(i64 8, ptr %7) #14
  %9 = load ptr, ptr @data_spdu_can_mappings, align 8
  %10 = icmp eq ptr %9, null
  br i1 %10, label %11, label %12

11:                                               ; preds = %2
  store ptr null, ptr %3, align 8
  store i32 1, ptr %8, align 4
  br label %32

12:                                               ; preds = %2
  %13 = load i32, ptr %4, align 4
  %14 = zext i32 %13 to i64
  %15 = and i64 %14, 2684354559
  %16 = load i16, ptr %5, align 2
  %17 = zext i16 %16 to i64
  %18 = shl i64 %17, 32
  %19 = or i64 %15, %18
  store i64 %19, ptr %6, align 8
  %20 = load ptr, ptr @data_spdu_can_mappings, align 8
  %21 = call ptr @g_hash_table_lookup(ptr noundef %20, ptr noundef %6)
  store ptr %21, ptr %7, align 8
  %22 = load ptr, ptr %7, align 8
  %23 = icmp eq ptr %22, null
  br i1 %23, label %24, label %30

24:                                               ; preds = %12
  %25 = load i32, ptr %4, align 4
  %26 = and i32 %25, -1610612737
  %27 = zext i32 %26 to i64
  store i64 %27, ptr %6, align 8
  %28 = load ptr, ptr @data_spdu_can_mappings, align 8
  %29 = call ptr @g_hash_table_lookup(ptr noundef %28, ptr noundef %6)
  store ptr %29, ptr %7, align 8
  br label %30

30:                                               ; preds = %24, %12
  %31 = load ptr, ptr %7, align 8
  store ptr %31, ptr %3, align 8
  store i32 1, ptr %8, align 4
  br label %32

32:                                               ; preds = %30, %11
  call void @llvm.lifetime.end.p0(i64 8, ptr %7) #14
  call void @llvm.lifetime.end.p0(i64 8, ptr %6) #14
  %33 = load ptr, ptr %3, align 8
  ret ptr %33
}

; Function Attrs: null_pointer_is_valid sspstrong uwtable
define internal i32 @dissect_spdu_message_can(ptr noundef %0, ptr noundef %1, ptr noundef %2, ptr noundef %3) #0 {
  %5 = alloca i32, align 4
  %6 = alloca ptr, align 8
  %7 = alloca ptr, align 8
  %8 = alloca ptr, align 8
  %9 = alloca ptr, align 8
  %10 = alloca ptr, align 8
  %11 = alloca i32, align 4
  %12 = alloca ptr, align 8
  store ptr %0, ptr %6, align 8
  store ptr %1, ptr %7, align 8
  store ptr %2, ptr %8, align 8
  store ptr %3, ptr %9, align 8
  call void @llvm.lifetime.start.p0(i64 8, ptr %10) #14
  %13 = load ptr, ptr %9, align 8
  store ptr %13, ptr %10, align 8
  %14 = load ptr, ptr %10, align 8
  %15 = icmp ne ptr %14, null
  br i1 %15, label %16, label %17

16:                                               ; preds = %4
  br label %19

17:                                               ; preds = %4
  call void (ptr, ...) @proto_report_dissector_bug(ptr noundef @.str.311, ptr noundef @.str.312, i32 noundef 2471, ptr noundef @.str.328) #18
  unreachable

18:                                               ; No predecessors!
  br label %19

19:                                               ; preds = %18, %16
  %20 = load ptr, ptr %10, align 8
  %21 = getelementptr inbounds nuw %struct.can_info, ptr %20, i32 0, i32 0
  %22 = load i32, ptr %21, align 4
  %23 = and i32 %22, 1610612736
  %24 = icmp ne i32 %23, 0
  br i1 %24, label %25, label %26

25:                                               ; preds = %19
  store i32 0, ptr %5, align 4
  store i32 1, ptr %11, align 4
  br label %46

26:                                               ; preds = %19
  call void @llvm.lifetime.start.p0(i64 8, ptr %12) #14
  %27 = load ptr, ptr %10, align 8
  %28 = getelementptr inbounds nuw %struct.can_info, ptr %27, i32 0, i32 0
  %29 = load i32, ptr %28, align 4
  %30 = load ptr, ptr %10, align 8
  %31 = getelementptr inbounds nuw %struct.can_info, ptr %30, i32 0, i32 3
  %32 = load i16, ptr %31, align 4
  %33 = call ptr @get_can_mapping(i32 noundef %29, i16 noundef zeroext %32)
  store ptr %33, ptr %12, align 8
  %34 = load ptr, ptr %12, align 8
  %35 = icmp eq ptr %34, null
  br i1 %35, label %36, label %37

36:                                               ; preds = %26
  store i32 0, ptr %5, align 4
  store i32 1, ptr %11, align 4
  br label %45

37:                                               ; preds = %26
  %38 = load ptr, ptr %6, align 8
  %39 = load ptr, ptr %7, align 8
  %40 = load ptr, ptr %8, align 8
  %41 = load ptr, ptr %12, align 8
  %42 = getelementptr inbounds nuw %struct._spdu_can_mapping, ptr %41, i32 0, i32 2
  %43 = load i32, ptr %42, align 4
  %44 = call i32 @dissect_spdu_payload(ptr noundef %38, ptr noundef %39, ptr noundef %40, i32 noundef %43, i1 noundef zeroext true)
  store i32 %44, ptr %5, align 4
  store i32 1, ptr %11, align 4
  br label %45

45:                                               ; preds = %37, %36
  call void @llvm.lifetime.end.p0(i64 8, ptr %12) #14
  br label %46

46:                                               ; preds = %45, %25
  call void @llvm.lifetime.end.p0(i64 8, ptr %10) #14
  %47 = load i32, ptr %5, align 4
  ret i32 %47
}