; Function Attrs: null_pointer_is_valid sspstrong uwtable
define internal i32 @dissect_spdu_message_can(ptr noundef %0, ptr noundef %1, ptr noundef %2, ptr noundef readonly captures(address_is_null) %3) #0 {
  %5 = alloca i64, align 8
  %.not = icmp eq ptr %3, null
  br i1 %.not, label %6, label %7

6:                                                ; preds = %4
  tail call void (ptr, ...) @proto_report_dissector_bug(ptr noundef nonnull @.str.311, ptr noundef nonnull @.str.312, i32 noundef 2471, ptr noundef nonnull @.str.328) #20
  unreachable

7:                                                ; preds = %4
  %8 = load i32, ptr %3, align 4
  %9 = and i32 %8, 1610612736
  %.not12 = icmp eq i32 %9, 0
  br i1 %.not12, label %10, label %29

10:                                               ; preds = %7
  %11 = getelementptr inbounds nuw i8, ptr %3, i64 12
  %12 = load i16, ptr %11, align 4
  call void @llvm.lifetime.start.p0(i64 8, ptr nonnull %5) #16
  %13 = load ptr, ptr @data_spdu_can_mappings, align 8
  %14 = icmp eq ptr %13, null
  br i1 %14, label %get_can_mapping.exit.thread, label %15

get_can_mapping.exit.thread:                      ; preds = %10
  call void @llvm.lifetime.end.p0(i64 8, ptr nonnull %5) #16
  br label %29

15:                                               ; preds = %10
  %16 = zext i32 %8 to i64
  %17 = zext i16 %12 to i64
  %18 = shl nuw nsw i64 %17, 32
  %19 = or disjoint i64 %18, %16
  store i64 %19, ptr %5, align 8
  %20 = call ptr @g_hash_table_lookup(ptr noundef nonnull %13, ptr noundef nonnull %5)
  %21 = icmp eq ptr %20, null
  br i1 %21, label %get_can_mapping.exit, label %get_can_mapping.exit.thread14

get_can_mapping.exit.thread14:                    ; preds = %15
  call void @llvm.lifetime.end.p0(i64 8, ptr nonnull %5) #16
  br label %25

get_can_mapping.exit:                             ; preds = %15
  store i64 %16, ptr %5, align 8
  %22 = load ptr, ptr @data_spdu_can_mappings, align 8
  %23 = call ptr @g_hash_table_lookup(ptr noundef %22, ptr noundef nonnull %5)
  call void @llvm.lifetime.end.p0(i64 8, ptr nonnull %5) #16
  %24 = icmp eq ptr %23, null
  br i1 %24, label %29, label %25

25:                                               ; preds = %get_can_mapping.exit.thread14, %get_can_mapping.exit
  %.05.i16 = phi ptr [ %20, %get_can_mapping.exit.thread14 ], [ %23, %get_can_mapping.exit ]
  %26 = getelementptr inbounds nuw i8, ptr %.05.i16, i64 8
  %27 = load i32, ptr %26, align 4
  %28 = call fastcc i32 @dissect_spdu_payload(ptr noundef %0, ptr noundef %1, ptr noundef %2, i32 noundef %27, i1 noundef zeroext true)
  br label %29

29:                                               ; preds = %get_can_mapping.exit.thread, %25, %get_can_mapping.exit, %7
  %.0 = phi i32 [ 0, %7 ], [ %28, %25 ], [ 0, %get_can_mapping.exit ], [ 0, %get_can_mapping.exit.thread ]
  ret i32 %.0
}